; Function Attrs: mustprogress nounwind willreturn uwtable
define hidden void @xsettings_setting_free(ptr noundef captures(none) %0) local_unnamed_addr #7 {
  %2 = getelementptr inbounds nuw i8, ptr %0, i64 8
  %3 = load i32, ptr %2, align 8
  %4 = icmp eq i32 %3, 1
  br i1 %4, label %5, label %8

5:                                                ; preds = %1
  %6 = getelementptr inbounds nuw i8, ptr %0, i64 16
  %7 = load ptr, ptr %6, align 8
  tail call void @free(ptr noundef %7) #14
  br label %8

8:                                                ; preds = %5, %1
  %9 = load ptr, ptr %0, align 8
  %.not = icmp eq ptr %9, null
  br i1 %.not, label %11, label %10

10:                                               ; preds = %8
  tail call void @free(ptr noundef nonnull %9) #14
  br label %11

11:                                               ; preds = %10, %8
  tail call void @free(ptr noundef nonnull %0) #14
  ret void
}